; Function Attrs: mustprogress uwtable
define hidden noundef i32 @_ZN4lean11to_explicitERKNS_5levelE(ptr noundef nonnull readonly align 8 captures(none) dereferenceable(8) %0) local_unnamed_addr #0 personality ptr @__gxx_personality_v0 {
  %2 = alloca %"struct.std::pair", align 8
  %3 = alloca %"class.lean::level", align 8
  call void @llvm.lifetime.start.p0(i64 16, ptr nonnull %2) #19
  %4 = load ptr, ptr %0, align 8, !tbaa !3
  store ptr %4, ptr %3, align 8, !tbaa !3
  %5 = ptrtoint ptr %4 to i64
  %6 = and i64 %5, 1
  %.not.i.i.i = icmp eq i64 %6, 0
  br i1 %.not.i.i.i, label %7, label %_ZN4lean5levelC2ERKS0_.exit

7:                                                ; preds = %1
  %.val.i.i.i.i = load i32, ptr %4, align 4, !tbaa !8
  %8 = icmp sgt i32 %.val.i.i.i.i, 0
  br i1 %8, label %9, label %11, !prof !11

9:                                                ; preds = %7
  %10 = add nuw nsw i32 %.val.i.i.i.i, 1
  store i32 %10, ptr %4, align 4, !tbaa !8
  br label %_ZN4lean5levelC2ERKS0_.exit

11:                                               ; preds = %7
  %.not.i.i.i.i = icmp eq i32 %.val.i.i.i.i, 0
  br i1 %.not.i.i.i.i, label %_ZN4lean5levelC2ERKS0_.exit, label %12

12:                                               ; preds = %11
  tail call void @lean_inc_ref_cold(ptr noundef nonnull %4)
  br label %_ZN4lean5levelC2ERKS0_.exit

_ZN4lean5levelC2ERKS0_.exit:                      ; preds = %1, %9, %11, %12
  invoke void @_ZN4lean9to_offsetENS_5levelE(ptr dead_on_unwind nonnull writable sret(%"struct.std::pair") align 8 %2, ptr noundef nonnull %3)
          to label %13 unwind label %42

13:                                               ; preds = %_ZN4lean5levelC2ERKS0_.exit
  %14 = getelementptr inbounds nuw i8, ptr %2, i64 8
  %15 = load i32, ptr %14, align 8, !tbaa !33
  %16 = load ptr, ptr %2, align 8, !tbaa !3
  %17 = ptrtoint ptr %16 to i64
  %18 = and i64 %17, 1
  %.not.i.i.i2 = icmp eq i64 %18, 0
  br i1 %.not.i.i.i2, label %19, label %_ZNSt4pairIN4lean5levelEjED2Ev.exit

19:                                               ; preds = %13
  %20 = load i32, ptr %16, align 4, !tbaa !8
  %21 = icmp sgt i32 %20, 1
  br i1 %21, label %22, label %24, !prof !11

22:                                               ; preds = %19
  %23 = add nsw i32 %20, -1
  store i32 %23, ptr %16, align 4, !tbaa !8
  br label %_ZNSt4pairIN4lean5levelEjED2Ev.exit

24:                                               ; preds = %19
  %.not.i.i.i.i3 = icmp eq i32 %20, 0
  br i1 %.not.i.i.i.i3, label %_ZNSt4pairIN4lean5levelEjED2Ev.exit, label %25

25:                                               ; preds = %24
  invoke void @lean_dec_ref_cold(ptr noundef nonnull %16)
          to label %_ZNSt4pairIN4lean5levelEjED2Ev.exit unwind label %26

26:                                               ; preds = %25
  %27 = landingpad { ptr, i32 }
          catch ptr null
  %28 = extractvalue { ptr, i32 } %27, 0
  tail call void @__clang_call_terminate(ptr %28) #21
  unreachable

_ZNSt4pairIN4lean5levelEjED2Ev.exit:              ; preds = %13, %22, %24, %25
  %29 = load ptr, ptr %3, align 8, !tbaa !3
  %30 = ptrtoint ptr %29 to i64
  %31 = and i64 %30, 1
  %.not.i.i = icmp eq i64 %31, 0
  br i1 %.not.i.i, label %32, label %_ZN4lean10object_refD2Ev.exit

32:                                               ; preds = %_ZNSt4pairIN4lean5levelEjED2Ev.exit
  %33 = load i32, ptr %29, align 4, !tbaa !8
  %34 = icmp sgt i32 %33, 1
  br i1 %34, label %35, label %37, !prof !11

35:                                               ; preds = %32
  %36 = add nsw i32 %33, -1
  store i32 %36, ptr %29, align 4, !tbaa !8
  br label %_ZN4lean10object_refD2Ev.exit

37:                                               ; preds = %32
  %.not.i.i.i4 = icmp eq i32 %33, 0
  br i1 %.not.i.i.i4, label %_ZN4lean10object_refD2Ev.exit, label %38

38:                                               ; preds = %37
  invoke void @lean_dec_ref_cold(ptr noundef nonnull %29)
          to label %_ZN4lean10object_refD2Ev.exit unwind label %39

39:                                               ; preds = %38
  %40 = landingpad { ptr, i32 }
          catch ptr null
  %41 = extractvalue { ptr, i32 } %40, 0
  tail call void @__clang_call_terminate(ptr %41) #21
  unreachable

_ZN4lean10object_refD2Ev.exit:                    ; preds = %_ZNSt4pairIN4lean5levelEjED2Ev.exit, %35, %37, %38
  call void @llvm.lifetime.end.p0(i64 16, ptr nonnull %2) #19
  ret i32 %15

42:                                               ; preds = %_ZN4lean5levelC2ERKS0_.exit
  %43 = landingpad { ptr, i32 }
          cleanup
  call void @_ZN4lean10object_refD2Ev(ptr noundef nonnull align 8 dereferenceable(8) %3) #19
  call void @llvm.lifetime.end.p0(i64 16, ptr nonnull %2) #19
  resume { ptr, i32 } %43
}